; Function Attrs: mustprogress nounwind uwtable
define void @_ZN6icu_7715RBBIRuleScanner10fixOpStackENS_8RBBINode12OpPrecedenceE(ptr noundef nonnull align 8 captures(none) dereferenceable(3192) %0, i32 noundef %1) local_unnamed_addr #4 align 2 {
  %3 = getelementptr inbounds nuw i8, ptr %0, i64 328
  %4 = getelementptr inbounds nuw i8, ptr %0, i64 1128
  %invariant.smax = tail call i32 @llvm.smax.i32(i32 %1, i32 3)
  %.promoted = load i32, ptr %4, align 8, !tbaa !56
  %5 = add nsw i32 %.promoted, -1
  %6 = sext i32 %5 to i64
  %7 = getelementptr inbounds [100 x ptr], ptr %3, i64 0, i64 %6
  %8 = load ptr, ptr %7, align 8, !tbaa !31
  %9 = getelementptr inbounds nuw i8, ptr %8, i64 40
  %10 = load i32, ptr %9, align 8, !tbaa !63
  %11 = icmp eq i32 %10, 0
  br i1 %11, label %._crit_edge, label %.lr.ph.preheader

.lr.ph.preheader:                                 ; preds = %2
  %12 = sext i32 %.promoted to i64
  br label %.lr.ph

._crit_edge:                                      ; preds = %32, %2
  %13 = getelementptr inbounds nuw i8, ptr %0, i64 8
  %14 = load ptr, ptr %13, align 8, !tbaa !12
  %15 = getelementptr inbounds nuw i8, ptr %14, i64 16
  %16 = load ptr, ptr %15, align 8, !tbaa !35
  %17 = load i32, ptr %16, align 4, !tbaa !45
  %18 = icmp sgt i32 %17, 0
  br i1 %18, label %_ZN6icu_7715RBBIRuleScanner5errorE10UErrorCode.exit, label %19

19:                                               ; preds = %._crit_edge
  store i32 66048, ptr %16, align 4, !tbaa !45
  %20 = getelementptr inbounds nuw i8, ptr %14, i64 24
  %21 = load ptr, ptr %20, align 8, !tbaa !58
  %.not1.i = icmp eq ptr %21, null
  br i1 %.not1.i, label %_ZN6icu_7715RBBIRuleScanner5errorE10UErrorCode.exit, label %22

22:                                               ; preds = %19
  %23 = getelementptr inbounds nuw i8, ptr %0, i64 28
  %24 = load i32, ptr %23, align 4, !tbaa !24
  store i32 %24, ptr %21, align 4, !tbaa !59
  %25 = getelementptr inbounds nuw i8, ptr %0, i64 32
  %26 = load i32, ptr %25, align 8, !tbaa !25
  %27 = getelementptr inbounds nuw i8, ptr %21, i64 4
  store i32 %26, ptr %27, align 4, !tbaa !61
  %28 = getelementptr inbounds nuw i8, ptr %21, i64 8
  store i16 0, ptr %28, align 4, !tbaa !50
  %29 = getelementptr inbounds nuw i8, ptr %21, i64 40
  store i16 0, ptr %29, align 4, !tbaa !50
  br label %_ZN6icu_7715RBBIRuleScanner5errorE10UErrorCode.exit

.lr.ph:                                           ; preds = %.lr.ph.preheader, %32
  %indvars.iv37 = phi i64 [ %12, %.lr.ph.preheader ], [ %indvars.iv.next38, %32 ]
  %indvars.iv = phi i64 [ %6, %.lr.ph.preheader ], [ %indvars.iv.next, %32 ]
  %30 = phi i32 [ %10, %.lr.ph.preheader ], [ %41, %32 ]
  %31 = phi ptr [ %8, %.lr.ph.preheader ], [ %39, %32 ]
  %or.cond = icmp slt i32 %30, %invariant.smax
  br i1 %or.cond, label %43, label %32

32:                                               ; preds = %.lr.ph
  %33 = getelementptr inbounds [100 x ptr], ptr %3, i64 0, i64 %indvars.iv37
  %34 = load ptr, ptr %33, align 8, !tbaa !31
  %35 = getelementptr inbounds nuw i8, ptr %31, i64 24
  store ptr %34, ptr %35, align 8, !tbaa !68
  %36 = getelementptr inbounds nuw i8, ptr %34, i64 8
  store ptr %31, ptr %36, align 8, !tbaa !69
  %37 = trunc nsw i64 %indvars.iv to i32
  store i32 %37, ptr %4, align 8, !tbaa !56
  %indvars.iv.next = add nsw i64 %indvars.iv, -1
  %38 = getelementptr inbounds [100 x ptr], ptr %3, i64 0, i64 %indvars.iv.next
  %39 = load ptr, ptr %38, align 8, !tbaa !31
  %40 = getelementptr inbounds nuw i8, ptr %39, i64 40
  %41 = load i32, ptr %40, align 8, !tbaa !63
  %42 = icmp eq i32 %41, 0
  %indvars.iv.next38 = add nsw i64 %indvars.iv37, -1
  br i1 %42, label %._crit_edge, label %.lr.ph, !llvm.loop !67

43:                                               ; preds = %.lr.ph
  %44 = trunc nsw i64 %indvars.iv to i32
  %45 = getelementptr inbounds [100 x ptr], ptr %3, i64 0, i64 %indvars.iv
  %46 = icmp slt i32 %1, 3
  br i1 %46, label %47, label %_ZN6icu_7715RBBIRuleScanner5errorE10UErrorCode.exit

47:                                               ; preds = %43
  %.not = icmp eq i32 %30, %1
  br i1 %.not, label %66, label %48

48:                                               ; preds = %47
  %49 = getelementptr inbounds nuw i8, ptr %0, i64 8
  %50 = load ptr, ptr %49, align 8, !tbaa !12
  %51 = getelementptr inbounds nuw i8, ptr %50, i64 16
  %52 = load ptr, ptr %51, align 8, !tbaa !35
  %53 = load i32, ptr %52, align 4, !tbaa !45
  %54 = icmp sgt i32 %53, 0
  br i1 %54, label %66, label %55

55:                                               ; preds = %48
  store i32 66055, ptr %52, align 4, !tbaa !45
  %56 = getelementptr inbounds nuw i8, ptr %50, i64 24
  %57 = load ptr, ptr %56, align 8, !tbaa !58
  %.not1.i12 = icmp eq ptr %57, null
  br i1 %.not1.i12, label %66, label %58

58:                                               ; preds = %55
  %59 = getelementptr inbounds nuw i8, ptr %0, i64 28
  %60 = load i32, ptr %59, align 4, !tbaa !24
  store i32 %60, ptr %57, align 4, !tbaa !59
  %61 = getelementptr inbounds nuw i8, ptr %0, i64 32
  %62 = load i32, ptr %61, align 8, !tbaa !25
  %63 = getelementptr inbounds nuw i8, ptr %57, i64 4
  store i32 %62, ptr %63, align 4, !tbaa !61
  %64 = getelementptr inbounds nuw i8, ptr %57, i64 8
  store i16 0, ptr %64, align 4, !tbaa !50
  %65 = getelementptr inbounds nuw i8, ptr %57, i64 40
  store i16 0, ptr %65, align 4, !tbaa !50
  br label %66

66:                                               ; preds = %47, %48, %55, %58
  %sext = shl i64 %indvars.iv37, 32
  %67 = ashr exact i64 %sext, 32
  %68 = getelementptr inbounds [100 x ptr], ptr %3, i64 0, i64 %67
  %69 = load ptr, ptr %68, align 8, !tbaa !31
  store ptr %69, ptr %45, align 8, !tbaa !31
  store i32 %44, ptr %4, align 8, !tbaa !56
  tail call void @_ZN6icu_778RBBINodeD1Ev(ptr noundef nonnull align 8 dereferenceable(160) %31) #13
  tail call void @_ZN6icu_777UMemorydlEPv(ptr noundef nonnull %31) #13
  br label %_ZN6icu_7715RBBIRuleScanner5errorE10UErrorCode.exit

_ZN6icu_7715RBBIRuleScanner5errorE10UErrorCode.exit: ; preds = %22, %19, %._crit_edge, %43, %66
  ret void
}